; Function Attrs: null_pointer_is_valid sspstrong uwtable
define hidden i32 @witness_dissect_struct_interfaceInfo(ptr noundef %0, i32 noundef %1, ptr noundef %2, ptr noundef %3, ptr noundef %4, ptr noundef %5, i32 noundef %6, i32 %7) local_unnamed_addr #0 {
  %9 = alloca i16, align 2
  %10 = alloca i32, align 4
  %11 = alloca ptr, align 8
  %12 = getelementptr inbounds nuw i8, ptr %4, i64 25
  %13 = load i8, ptr %12, align 1, !range !6, !noundef !7
  %14 = trunc nuw i8 %13 to i1
  %15 = and i32 %1, 3
  %.not = icmp eq i32 %15, 0
  %or.cond = or i1 %.not, %14
  %16 = and i32 %1, -4
  %17 = add i32 %16, 4
  %.0 = select i1 %or.cond, i32 %1, i32 %17
  %.not56 = icmp eq ptr %3, null
  br i1 %.not56, label %22, label %18

18:                                               ; preds = %8
  %19 = tail call ptr @proto_tree_add_item(ptr noundef nonnull %3, i32 noundef %6, ptr noundef %0, i32 noundef %.0, i32 noundef -1, i32 noundef 0)
  %20 = load i32, ptr @ett_witness_witness_interfaceInfo, align 4
  %21 = tail call ptr @proto_item_add_subtree(ptr noundef %19, i32 noundef %20)
  br label %22

22:                                               ; preds = %18, %8
  %.054 = phi ptr [ %19, %18 ], [ null, %8 ]
  %.053 = phi ptr [ %21, %18 ], [ null, %8 ]
  call void @llvm.lifetime.start.p0(i64 8, ptr nonnull %11) #6
  br label %23

23:                                               ; preds = %28, %22
  %.02.i = phi i32 [ 0, %22 ], [ %24, %28 ]
  %24 = add nuw nsw i32 %.02.i, 2
  %25 = add i32 %.02.i, %.0
  %26 = tail call zeroext i16 @tvb_get_letohs(ptr noundef %0, i32 noundef %25)
  %27 = icmp eq i16 %26, 0
  br i1 %27, label %witness_dissect_element_interfaceInfo_group_name.exit, label %28

28:                                               ; preds = %23
  %29 = icmp samesign ult i32 %.02.i, 518
  br i1 %29, label %23, label %witness_dissect_element_interfaceInfo_group_name.exit, !llvm.loop !10

witness_dissect_element_interfaceInfo_group_name.exit: ; preds = %23, %28
  %.lcssa.i = phi i32 [ %24, %23 ], [ 520, %28 ]
  %.014.lcssa.i = phi i32 [ %.02.i, %23 ], [ 520, %28 ]
  %30 = load i32, ptr @hf_witness_witness_interfaceInfo_group_name, align 4
  %31 = getelementptr inbounds nuw i8, ptr %2, i64 408
  %32 = load ptr, ptr %31, align 8
  %33 = call ptr @proto_tree_add_item_ret_display_string(ptr noundef %.053, i32 noundef %30, ptr noundef %0, i32 noundef %.0, i32 noundef %.014.lcssa.i, i32 noundef -2147483644, ptr noundef %32, ptr noundef nonnull %11)
  call void (ptr, ptr, ...) @proto_item_append_text(ptr noundef %33, ptr noundef nonnull @.str.113, i32 noundef %.lcssa.i)
  %34 = load ptr, ptr %11, align 8
  call void (ptr, ptr, ...) @proto_item_append_text(ptr noundef %.053, ptr noundef nonnull @.str.114, ptr noundef %34)
  %35 = add i32 %.0, 520
  call void @llvm.lifetime.end.p0(i64 8, ptr nonnull %11) #6
  %36 = load i32, ptr @hf_witness_witness_interfaceInfo_version, align 4
  call void @llvm.lifetime.start.p0(i64 4, ptr nonnull %10) #6
  store i32 0, ptr %10, align 4
  %37 = call i32 @dissect_ndr_uint32(ptr noundef %0, i32 noundef %35, ptr noundef %2, ptr noundef %.053, ptr noundef %4, ptr noundef %5, i32 noundef %36, ptr noundef nonnull %10)
  call void @llvm.lifetime.end.p0(i64 4, ptr nonnull %10) #6
  %38 = load i32, ptr @hf_witness_witness_interfaceInfo_state, align 4
  call void @llvm.lifetime.start.p0(i64 2, ptr nonnull %9) #6
  store i16 0, ptr %9, align 2
  %39 = call i32 @dissect_ndr_uint16(ptr noundef %0, i32 noundef %37, ptr noundef %2, ptr noundef %.053, ptr noundef %4, ptr noundef %5, i32 noundef %38, ptr noundef nonnull %9)
  call void @llvm.lifetime.end.p0(i64 2, ptr nonnull %9) #6
  %40 = load i32, ptr @hf_witness_witness_interfaceInfo_ipv4, align 4
  %41 = call fastcc noundef i32 @PIDL_dissect_ipv4address(ptr noundef %0, i32 noundef %39, ptr noundef readonly %2, ptr noundef %.053, ptr noundef readonly %4, i32 noundef %40)
  %42 = load i32, ptr @hf_witness_witness_interfaceInfo_ipv6, align 4
  %43 = call fastcc noundef i32 @PIDL_dissect_ipv6address(ptr noundef %0, i32 noundef %41, ptr noundef readonly %2, ptr noundef %.053, ptr noundef readonly %4, i32 noundef %42)
  %44 = load i32, ptr @hf_witness_witness_interfaceInfo_flags, align 4
  %45 = call i32 @witness_dissect_bitmap_interfaceInfo_flags(ptr noundef %0, i32 noundef %43, ptr noundef %2, ptr noundef %.053, ptr noundef %4, ptr noundef %5, i32 noundef %44, i32 poison)
  %46 = sub i32 %45, %.0
  call void @proto_item_set_len(ptr noundef %.054, i32 noundef %46)
  %47 = getelementptr inbounds nuw i8, ptr %4, i64 64
  %48 = load ptr, ptr %47, align 8
  %49 = getelementptr inbounds nuw i8, ptr %48, i64 96
  %50 = load i32, ptr %49, align 8
  %51 = and i32 %50, 1
  %.not57 = icmp eq i32 %51, 0
  br i1 %.not57, label %59, label %52

52:                                               ; preds = %witness_dissect_element_interfaceInfo_group_name.exit
  %53 = load i8, ptr %12, align 1, !range !6, !noundef !7
  %54 = trunc nuw i8 %53 to i1
  %55 = and i32 %45, 3
  %.not58 = icmp eq i32 %55, 0
  %or.cond59 = or i1 %.not58, %54
  br i1 %or.cond59, label %59, label %56

56:                                               ; preds = %52
  %57 = and i32 %45, -4
  %58 = add i32 %57, 4
  br label %59

59:                                               ; preds = %52, %56, %witness_dissect_element_interfaceInfo_group_name.exit
  %.1 = phi i32 [ %45, %52 ], [ %58, %56 ], [ %45, %witness_dissect_element_interfaceInfo_group_name.exit ]
  ret i32 %.1
}